target datalayout = "e-m:e-p270:32:32-p271:32:32-p272:64:64-i64:64-i128:128-f80:128-n8:16:32:64-S128"
target triple = "x86_64-pc-linux-gnu"

@.str.123 = private unnamed_addr constant [1 x i8] zeroinitializer, align 1
@.str.253 = private unnamed_addr constant [8 x i8] c"%s%s : \00", align 1
@.str.254 = private unnamed_addr constant [4 x i8] c" CA\00", align 1
@.str.255 = private unnamed_addr constant [5 x i8] c"Yes\0A\00", align 1
@.str.256 = private unnamed_addr constant [4 x i8] c"No\0A\00", align 1
@.str.257 = private unnamed_addr constant [23 x i8] c"Yes (WARNING code=%d)\0A\00", align 1

; Function Attrs: nounwind uwtable
define internal i32 @purpose_print(ptr noundef %0, ptr noundef %1, ptr noundef %2) #0 {
  %4 = alloca ptr, align 8
  %5 = alloca ptr, align 8
  %6 = alloca ptr, align 8
  %7 = alloca i32, align 4
  %8 = alloca i32, align 4
  %9 = alloca i32, align 4
  %10 = alloca ptr, align 8
  store ptr %0, ptr %4, align 8, !tbaa !15
  store ptr %1, ptr %5, align 8, !tbaa !31
  store ptr %2, ptr %6, align 8, !tbaa !60
  call void @llvm.lifetime.start.p0(i64 4, ptr %7) #8
  call void @llvm.lifetime.start.p0(i64 4, ptr %8) #8
  call void @llvm.lifetime.start.p0(i64 4, ptr %9) #8
  call void @llvm.lifetime.start.p0(i64 8, ptr %10) #8
  %11 = load ptr, ptr %6, align 8, !tbaa !60
  %12 = call i32 @X509_PURPOSE_get_id(ptr noundef %11)
  store i32 %12, ptr %7, align 4, !tbaa !4
  %13 = load ptr, ptr %6, align 8, !tbaa !60
  %14 = call ptr @X509_PURPOSE_get0_name(ptr noundef %13)
  store ptr %14, ptr %10, align 8, !tbaa !21
  store i32 0, ptr %8, align 4, !tbaa !4
  br label %15

15:                                               ; preds = %46, %3
  %16 = load i32, ptr %8, align 4, !tbaa !4
  %17 = icmp slt i32 %16, 2
  br i1 %17, label %18, label %49

18:                                               ; preds = %15
  %19 = load ptr, ptr %5, align 8, !tbaa !31
  %20 = load i32, ptr %7, align 4, !tbaa !4
  %21 = load i32, ptr %8, align 4, !tbaa !4
  %22 = call i32 @X509_check_purpose(ptr noundef %19, i32 noundef %20, i32 noundef %21)
  store i32 %22, ptr %9, align 4, !tbaa !4
  %23 = load ptr, ptr %4, align 8, !tbaa !15
  %24 = load ptr, ptr %10, align 8, !tbaa !21
  %25 = load i32, ptr %8, align 4, !tbaa !4
  %26 = icmp ne i32 %25, 0
  %27 = select i1 %26, ptr @.str.254, ptr @.str.123
  %28 = call i32 (ptr, ptr, ...) @BIO_printf(ptr noundef %23, ptr noundef @.str.253, ptr noundef %24, ptr noundef %27)
  %29 = load i32, ptr %9, align 4, !tbaa !4
  %30 = icmp eq i32 %29, 1
  br i1 %30, label %31, label %34

31:                                               ; preds = %18
  %32 = load ptr, ptr %4, align 8, !tbaa !15
  %33 = call i32 (ptr, ptr, ...) @BIO_printf(ptr noundef %32, ptr noundef @.str.255)
  br label %45

34:                                               ; preds = %18
  %35 = load i32, ptr %9, align 4, !tbaa !4
  %36 = icmp eq i32 %35, 0
  br i1 %36, label %37, label %40

37:                                               ; preds = %34
  %38 = load ptr, ptr %4, align 8, !tbaa !15
  %39 = call i32 (ptr, ptr, ...) @BIO_printf(ptr noundef %38, ptr noundef @.str.256)
  br label %44

40:                                               ; preds = %34
  %41 = load ptr, ptr %4, align 8, !tbaa !15
  %42 = load i32, ptr %9, align 4, !tbaa !4
  %43 = call i32 (ptr, ptr, ...) @BIO_printf(ptr noundef %41, ptr noundef @.str.257, i32 noundef %42)
  br label %44

44:                                               ; preds = %40, %37
  br label %45

45:                                               ; preds = %44, %31
  br label %46

46:                                               ; preds = %45
  %47 = load i32, ptr %8, align 4, !tbaa !4
  %48 = add nsw i32 %47, 1
  store i32 %48, ptr %8, align 4, !tbaa !4
  br label %15, !llvm.loop !62

49:                                               ; preds = %15
  call void @llvm.lifetime.end.p0(i64 8, ptr %10) #8
  call void @llvm.lifetime.end.p0(i64 4, ptr %9) #8
  call void @llvm.lifetime.end.p0(i64 4, ptr %8) #8
  call void @llvm.lifetime.end.p0(i64 4, ptr %7) #8
  ret i32 1
}