; Function Attrs: nounwind uwtable
define internal fastcc void @purpose_print(ptr noundef nonnull %0, ptr noundef nonnull %1, ptr noundef %2) unnamed_addr #0 {
  %4 = tail call i32 @X509_PURPOSE_get_id(ptr noundef %2) #8
  %5 = tail call ptr @X509_PURPOSE_get0_name(ptr noundef %2) #8
  br label %6

6:                                                ; preds = %3, %16
  %.not = phi i1 [ true, %3 ], [ false, %16 ]
  %.016 = phi i32 [ 0, %3 ], [ 1, %16 ]
  %7 = tail call i32 @X509_check_purpose(ptr noundef nonnull %1, i32 noundef %4, i32 noundef %.016) #8
  %8 = select i1 %.not, ptr @.str.123, ptr @.str.254
  %9 = tail call i32 (ptr, ptr, ...) @BIO_printf(ptr noundef nonnull %0, ptr noundef nonnull @.str.253, ptr noundef %5, ptr noundef nonnull %8) #8
  switch i32 %7, label %14 [
    i32 1, label %10
    i32 0, label %12
  ]

10:                                               ; preds = %6
  %11 = tail call i32 (ptr, ptr, ...) @BIO_printf(ptr noundef nonnull %0, ptr noundef nonnull @.str.255) #8
  br label %16

12:                                               ; preds = %6
  %13 = tail call i32 (ptr, ptr, ...) @BIO_printf(ptr noundef nonnull %0, ptr noundef nonnull @.str.256) #8
  br label %16

14:                                               ; preds = %6
  %15 = tail call i32 (ptr, ptr, ...) @BIO_printf(ptr noundef nonnull %0, ptr noundef nonnull @.str.257, i32 noundef %7) #8
  br label %16

16:                                               ; preds = %10, %14, %12
  br i1 %.not, label %6, label %17, !llvm.loop !30

17:                                               ; preds = %16
  ret void
}